target datalayout = "e-m:e-p270:32:32-p271:32:32-p272:64:64-i64:64-i128:128-f80:128-n8:16:32:64-S128"
target triple = "x86_64-pc-linux-gnu"

%struct.sockaddr_storage = type { i16, [118 x i8], i64 }
%struct.sockaddr_in6 = type { i16, i16, i32, %struct.in6_addr, i32 }
%struct.in6_addr = type { %union.anon }
%union.anon = type { [4 x i32] }
%struct.sockaddr_in = type { i16, i16, %struct.in_addr, [8 x i8] }
%struct.in_addr = type { i32 }

; Function Attrs: nounwind uwtable
define dso_local i32 @slurm_unpack_addr_no_alloc(ptr noundef %0, ptr noundef %1) #0 {
  %3 = alloca i32, align 4
  %4 = alloca ptr, align 8
  %5 = alloca ptr, align 8
  %6 = alloca i16, align 2
  %7 = alloca i32, align 4
  %8 = alloca ptr, align 8
  %9 = alloca ptr, align 8
  %10 = alloca i32, align 4
  %11 = alloca ptr, align 8
  store ptr %0, ptr %4, align 8
  store ptr %1, ptr %5, align 8
  call void @llvm.lifetime.start.p0(i64 2, ptr %6) #9
  store i16 0, ptr %6, align 2
  br label %12

12:                                               ; preds = %2
  %13 = load ptr, ptr %5, align 8
  %14 = call i32 @unpack16(ptr noundef %6, ptr noundef %13)
  %15 = icmp ne i32 %14, 0
  br i1 %15, label %16, label %17

16:                                               ; preds = %12
  br label %95

17:                                               ; preds = %12
  br label %18

18:                                               ; preds = %17
  br label %19

19:                                               ; preds = %18
  %20 = load i16, ptr %6, align 2
  %21 = load ptr, ptr %4, align 8
  %22 = getelementptr inbounds nuw %struct.sockaddr_storage, ptr %21, i32 0, i32 0
  store i16 %20, ptr %22, align 8
  %23 = load ptr, ptr %4, align 8
  %24 = getelementptr inbounds nuw %struct.sockaddr_storage, ptr %23, i32 0, i32 0
  %25 = load i16, ptr %24, align 8
  %26 = zext i16 %25 to i32
  %27 = icmp eq i32 %26, 10
  br i1 %27, label %28, label %59

28:                                               ; preds = %19
  call void @llvm.lifetime.start.p0(i64 4, ptr %7) #9
  call void @llvm.lifetime.start.p0(i64 8, ptr %8) #9
  call void @llvm.lifetime.start.p0(i64 8, ptr %9) #9
  %29 = load ptr, ptr %4, align 8
  store ptr %29, ptr %9, align 8
  br label %30

30:                                               ; preds = %28
  %31 = load ptr, ptr %5, align 8
  %32 = call i32 @unpackmem_ptr(ptr noundef %8, ptr noundef %7, ptr noundef %31)
  %33 = icmp ne i32 %32, 0
  br i1 %33, label %34, label %35

34:                                               ; preds = %30
  store i32 4, ptr %10, align 4
  br label %56

35:                                               ; preds = %30
  br label %36

36:                                               ; preds = %35
  br label %37

37:                                               ; preds = %36
  %38 = load i32, ptr %7, align 4
  %39 = icmp ne i32 %38, 16
  br i1 %39, label %40, label %41

40:                                               ; preds = %37
  store i32 4, ptr %10, align 4
  br label %56

41:                                               ; preds = %37
  %42 = load ptr, ptr %9, align 8
  %43 = getelementptr inbounds nuw %struct.sockaddr_in6, ptr %42, i32 0, i32 3
  %44 = getelementptr inbounds nuw %struct.in6_addr, ptr %43, i32 0, i32 0
  %45 = load ptr, ptr %8, align 8
  call void @llvm.memcpy.p0.p0.i64(ptr align 4 %44, ptr align 1 %45, i64 16, i1 false)
  br label %46

46:                                               ; preds = %41
  %47 = load ptr, ptr %9, align 8
  %48 = getelementptr inbounds nuw %struct.sockaddr_in6, ptr %47, i32 0, i32 1
  %49 = load ptr, ptr %5, align 8
  %50 = call i32 @unpack16(ptr noundef %48, ptr noundef %49)
  %51 = icmp ne i32 %50, 0
  br i1 %51, label %52, label %53

52:                                               ; preds = %46
  store i32 4, ptr %10, align 4
  br label %56

53:                                               ; preds = %46
  br label %54

54:                                               ; preds = %53
  br label %55

55:                                               ; preds = %54
  store i32 0, ptr %10, align 4
  br label %56

56:                                               ; preds = %52, %40, %34, %55
  call void @llvm.lifetime.end.p0(i64 8, ptr %9) #9
  call void @llvm.lifetime.end.p0(i64 8, ptr %8) #9
  call void @llvm.lifetime.end.p0(i64 4, ptr %7) #9
  %57 = load i32, ptr %10, align 4
  switch i32 %57, label %96 [
    i32 0, label %58
    i32 4, label %95
  ]

58:                                               ; preds = %56
  br label %94

59:                                               ; preds = %19
  %60 = load ptr, ptr %4, align 8
  %61 = getelementptr inbounds nuw %struct.sockaddr_storage, ptr %60, i32 0, i32 0
  %62 = load i16, ptr %61, align 8
  %63 = zext i16 %62 to i32
  %64 = icmp eq i32 %63, 2
  br i1 %64, label %65, label %91

65:                                               ; preds = %59
  call void @llvm.lifetime.start.p0(i64 8, ptr %11) #9
  %66 = load ptr, ptr %4, align 8
  store ptr %66, ptr %11, align 8
  br label %67

67:                                               ; preds = %65
  %68 = load ptr, ptr %11, align 8
  %69 = getelementptr inbounds nuw %struct.sockaddr_in, ptr %68, i32 0, i32 2
  %70 = getelementptr inbounds nuw %struct.in_addr, ptr %69, i32 0, i32 0
  %71 = load ptr, ptr %5, align 8
  %72 = call i32 @unpack32(ptr noundef %70, ptr noundef %71)
  %73 = icmp ne i32 %72, 0
  br i1 %73, label %74, label %75

74:                                               ; preds = %67
  store i32 4, ptr %10, align 4
  br label %88

75:                                               ; preds = %67
  br label %76

76:                                               ; preds = %75
  br label %77

77:                                               ; preds = %76
  br label %78

78:                                               ; preds = %77
  %79 = load ptr, ptr %11, align 8
  %80 = getelementptr inbounds nuw %struct.sockaddr_in, ptr %79, i32 0, i32 1
  %81 = load ptr, ptr %5, align 8
  %82 = call i32 @unpack16(ptr noundef %80, ptr noundef %81)
  %83 = icmp ne i32 %82, 0
  br i1 %83, label %84, label %85

84:                                               ; preds = %78
  store i32 4, ptr %10, align 4
  br label %88

85:                                               ; preds = %78
  br label %86

86:                                               ; preds = %85
  br label %87

87:                                               ; preds = %86
  store i32 0, ptr %10, align 4
  br label %88

88:                                               ; preds = %84, %74, %87
  call void @llvm.lifetime.end.p0(i64 8, ptr %11) #9
  %89 = load i32, ptr %10, align 4
  switch i32 %89, label %96 [
    i32 0, label %90
    i32 4, label %95
  ]

90:                                               ; preds = %88
  br label %93

91:                                               ; preds = %59
  %92 = load ptr, ptr %4, align 8
  call void @llvm.memset.p0.i64(ptr align 8 %92, i8 0, i64 128, i1 false)
  br label %93

93:                                               ; preds = %91, %90
  br label %94

94:                                               ; preds = %93, %58
  store i32 0, ptr %3, align 4
  store i32 1, ptr %10, align 4
  br label %96

95:                                               ; preds = %88, %56, %16
  store i32 -1, ptr %3, align 4
  store i32 1, ptr %10, align 4
  br label %96

96:                                               ; preds = %95, %94, %88, %56
  call void @llvm.lifetime.end.p0(i64 2, ptr %6) #9
  %97 = load i32, ptr %3, align 4
  ret i32 %97
}