; Function Attrs: nounwind uwtable
define dso_local range(i32 -1, 1) i32 @slurm_unpack_addr_no_alloc(ptr noundef %0, ptr noundef %1) local_unnamed_addr #0 {
  %3 = alloca i16, align 2
  %4 = alloca i32, align 4
  %5 = alloca ptr, align 8
  call void @llvm.lifetime.start.p0(i64 2, ptr nonnull %3) #11
  store i16 0, ptr %3, align 2
  %6 = call i32 @unpack16(ptr noundef nonnull %3, ptr noundef %1) #11
  %.not = icmp eq i32 %6, 0
  br i1 %.not, label %7, label %25

7:                                                ; preds = %2
  %8 = load i16, ptr %3, align 2
  store i16 %8, ptr %0, align 8
  switch i16 %8, label %24 [
    i16 10, label %9
    i16 2, label %18
  ]

9:                                                ; preds = %7
  call void @llvm.lifetime.start.p0(i64 4, ptr nonnull %4) #11
  call void @llvm.lifetime.start.p0(i64 8, ptr nonnull %5) #11
  %10 = call i32 @unpackmem_ptr(ptr noundef nonnull %5, ptr noundef nonnull %4, ptr noundef %1) #11
  %.not21 = icmp eq i32 %10, 0
  %11 = load i32, ptr %4, align 4
  %.not22 = icmp eq i32 %11, 16
  %or.cond = select i1 %.not21, i1 %.not22, i1 false
  br i1 %or.cond, label %12, label %.thread

12:                                               ; preds = %9
  %13 = getelementptr inbounds nuw i8, ptr %0, i64 8
  %14 = load ptr, ptr %5, align 8
  call void @llvm.memcpy.p0.p0.i64(ptr noundef nonnull align 4 dereferenceable(16) %13, ptr noundef nonnull align 1 dereferenceable(16) %14, i64 16, i1 false)
  %15 = getelementptr inbounds nuw i8, ptr %0, i64 2
  %16 = call i32 @unpack16(ptr noundef nonnull %15, ptr noundef %1) #11
  %.not23 = icmp eq i32 %16, 0
  br i1 %.not23, label %17, label %.thread

.thread:                                          ; preds = %9, %12
  call void @llvm.lifetime.end.p0(i64 8, ptr nonnull %5) #11
  call void @llvm.lifetime.end.p0(i64 4, ptr nonnull %4) #11
  br label %25

17:                                               ; preds = %12
  call void @llvm.lifetime.end.p0(i64 8, ptr nonnull %5) #11
  call void @llvm.lifetime.end.p0(i64 4, ptr nonnull %4) #11
  br label %25

18:                                               ; preds = %7
  %19 = getelementptr inbounds nuw i8, ptr %0, i64 4
  %20 = call i32 @unpack32(ptr noundef nonnull %19, ptr noundef %1) #11
  %.not19 = icmp eq i32 %20, 0
  br i1 %.not19, label %21, label %.thread33

21:                                               ; preds = %18
  %22 = getelementptr inbounds nuw i8, ptr %0, i64 2
  %23 = call i32 @unpack16(ptr noundef nonnull %22, ptr noundef %1) #11
  %.not20 = icmp eq i32 %23, 0
  br i1 %.not20, label %25, label %.thread33

.thread33:                                        ; preds = %18, %21
  br label %25

24:                                               ; preds = %7
  call void @llvm.memset.p0.i64(ptr noundef nonnull align 8 dereferenceable(128) %0, i8 0, i64 128, i1 false)
  br label %25

25:                                               ; preds = %2, %.thread, %.thread33, %21, %17, %24
  %.0 = phi i32 [ 0, %17 ], [ 0, %24 ], [ 0, %21 ], [ -1, %.thread33 ], [ -1, %.thread ], [ -1, %2 ]
  call void @llvm.lifetime.end.p0(i64 2, ptr nonnull %3) #11
  ret i32 %.0
}